target datalayout = "e-m:e-p270:32:32-p271:32:32-p272:64:64-i64:64-i128:128-f80:128-n8:16:32:64-S128"
target triple = "x86_64-pc-linux-gnu"

%"class.llvm::StringRef" = type { ptr, i64 }

; Function Attrs: mustprogress nounwind uwtable
define linkonce_odr hidden noundef i32 @_ZN4llvm9StringRef13compareMemoryEPKcS2_m(ptr noundef %0, ptr noundef %1, i64 noundef %2) #0 comdat align 2 {
  %4 = alloca i32, align 4
  %5 = alloca ptr, align 8
  %6 = alloca ptr, align 8
  %7 = alloca i64, align 8
  store ptr %0, ptr %5, align 8
  store ptr %1, ptr %6, align 8
  store i64 %2, ptr %7, align 8
  %8 = load i64, ptr %7, align 8
  %9 = icmp eq i64 %8, 0
  br i1 %9, label %10, label %11

10:                                               ; preds = %3
  store i32 0, ptr %4, align 4
  br label %16

11:                                               ; preds = %3
  %12 = load ptr, ptr %5, align 8
  %13 = load ptr, ptr %6, align 8
  %14 = load i64, ptr %7, align 8
  %15 = call i32 @memcmp(ptr noundef %12, ptr noundef %13, i64 noundef %14) #11
  store i32 %15, ptr %4, align 4
  br label %16

16:                                               ; preds = %11, %10
  %17 = load i32, ptr %4, align 4
  ret i32 %17
}

; Function Attrs: mustprogress nounwind uwtable
define linkonce_odr hidden noundef zeroext i1 @_ZN4llvm7isDigitEc(i8 noundef signext %0) #0 comdat {
  %2 = alloca i8, align 1
  store i8 %0, ptr %2, align 1
  %3 = load i8, ptr %2, align 1
  %4 = sext i8 %3 to i32
  %5 = icmp sge i32 %4, 48
  br i1 %5, label %6, label %10

6:                                                ; preds = %1
  %7 = load i8, ptr %2, align 1
  %8 = sext i8 %7 to i32
  %9 = icmp sle i32 %8, 57
  br label %10

10:                                               ; preds = %6, %1
  %11 = phi i1 [ false, %1 ], [ %9, %6 ]
  ret i1 %11
}

; Function Attrs: mustprogress nounwind uwtable
define linkonce_odr noundef nonnull align 8 dereferenceable(8) ptr @_ZSt3minImERKT_S2_S2_(ptr noundef nonnull align 8 dereferenceable(8) %0, ptr noundef nonnull align 8 dereferenceable(8) %1) #0 comdat {
  %3 = alloca ptr, align 8
  %4 = alloca ptr, align 8
  %5 = alloca ptr, align 8
  store ptr %0, ptr %4, align 8
  store ptr %1, ptr %5, align 8
  %6 = load ptr, ptr %5, align 8
  %7 = load i64, ptr %6, align 8
  %8 = load ptr, ptr %4, align 8
  %9 = load i64, ptr %8, align 8
  %10 = icmp ult i64 %7, %9
  br i1 %10, label %11, label %13

11:                                               ; preds = %2
  %12 = load ptr, ptr %5, align 8
  store ptr %12, ptr %3, align 8
  br label %15

13:                                               ; preds = %2
  %14 = load ptr, ptr %4, align 8
  store ptr %14, ptr %3, align 8
  br label %15

15:                                               ; preds = %13, %11
  %16 = load ptr, ptr %3, align 8
  ret ptr %16
}

; Function Attrs: mustprogress nounwind uwtable
define dso_local noundef i32 @_ZNK4llvm9StringRef15compare_numericES0_(ptr noundef nonnull align 8 dereferenceable(16) %0, ptr %1, i64 %2) #0 align 2 {
  %4 = alloca i32, align 4
  %5 = alloca %"class.llvm::StringRef", align 8
  %6 = alloca ptr, align 8
  %7 = alloca i64, align 8
  %8 = alloca i64, align 8
  %9 = alloca i64, align 8
  %10 = alloca i8, align 1
  %11 = alloca i8, align 1
  %12 = alloca i32, align 4
  %13 = getelementptr inbounds nuw { ptr, i64 }, ptr %5, i32 0, i32 0
  store ptr %1, ptr %13, align 8
  %14 = getelementptr inbounds nuw { ptr, i64 }, ptr %5, i32 0, i32 1
  store i64 %2, ptr %14, align 8
  store ptr %0, ptr %6, align 8
  %15 = load ptr, ptr %6, align 8
  store i64 0, ptr %7, align 8
  %16 = getelementptr inbounds nuw %"class.llvm::StringRef", ptr %15, i32 0, i32 1
  %17 = getelementptr inbounds nuw %"class.llvm::StringRef", ptr %5, i32 0, i32 1
  %18 = call noundef nonnull align 8 dereferenceable(8) ptr @_ZSt3minImERKT_S2_S2_(ptr noundef nonnull align 8 dereferenceable(8) %16, ptr noundef nonnull align 8 dereferenceable(8) %17)
  %19 = load i64, ptr %18, align 8
  store i64 %19, ptr %8, align 8
  br label %20

20:                                               ; preds = %146, %3
  %21 = load i64, ptr %7, align 8
  %22 = load i64, ptr %8, align 8
  %23 = icmp ne i64 %21, %22
  br i1 %23, label %24, label %149

24:                                               ; preds = %20
  %25 = getelementptr inbounds nuw %"class.llvm::StringRef", ptr %15, i32 0, i32 0
  %26 = load ptr, ptr %25, align 8
  %27 = load i64, ptr %7, align 8
  %28 = getelementptr inbounds i8, ptr %26, i64 %27
  %29 = load i8, ptr %28, align 1
  %30 = call noundef zeroext i1 @_ZN4llvm7isDigitEc(i8 noundef signext %29)
  br i1 %30, label %31, label %116

31:                                               ; preds = %24
  %32 = getelementptr inbounds nuw %"class.llvm::StringRef", ptr %5, i32 0, i32 0
  %33 = load ptr, ptr %32, align 8
  %34 = load i64, ptr %7, align 8
  %35 = getelementptr inbounds i8, ptr %33, i64 %34
  %36 = load i8, ptr %35, align 1
  %37 = call noundef zeroext i1 @_ZN4llvm7isDigitEc(i8 noundef signext %36)
  br i1 %37, label %38, label %116

38:                                               ; preds = %31
  %39 = load i64, ptr %7, align 8
  %40 = add i64 %39, 1
  store i64 %40, ptr %9, align 8
  br label %41

41:                                               ; preds = %91, %38
  %42 = load i64, ptr %9, align 8
  %43 = load i64, ptr %8, align 8
  %44 = add i64 %43, 1
  %45 = icmp ne i64 %42, %44
  br i1 %45, label %46, label %94

46:                                               ; preds = %41
  %47 = load i64, ptr %9, align 8
  %48 = getelementptr inbounds nuw %"class.llvm::StringRef", ptr %15, i32 0, i32 1
  %49 = load i64, ptr %48, align 8
  %50 = icmp ult i64 %47, %49
  br i1 %50, label %51, label %58

51:                                               ; preds = %46
  %52 = getelementptr inbounds nuw %"class.llvm::StringRef", ptr %15, i32 0, i32 0
  %53 = load ptr, ptr %52, align 8
  %54 = load i64, ptr %9, align 8
  %55 = getelementptr inbounds i8, ptr %53, i64 %54
  %56 = load i8, ptr %55, align 1
  %57 = call noundef zeroext i1 @_ZN4llvm7isDigitEc(i8 noundef signext %56)
  br label %58

58:                                               ; preds = %51, %46
  %59 = phi i1 [ false, %46 ], [ %57, %51 ]
  %60 = zext i1 %59 to i8
  store i8 %60, ptr %10, align 1
  %61 = load i64, ptr %9, align 8
  %62 = getelementptr inbounds nuw %"class.llvm::StringRef", ptr %5, i32 0, i32 1
  %63 = load i64, ptr %62, align 8
  %64 = icmp ult i64 %61, %63
  br i1 %64, label %65, label %72

65:                                               ; preds = %58
  %66 = getelementptr inbounds nuw %"class.llvm::StringRef", ptr %5, i32 0, i32 0
  %67 = load ptr, ptr %66, align 8
  %68 = load i64, ptr %9, align 8
  %69 = getelementptr inbounds i8, ptr %67, i64 %68
  %70 = load i8, ptr %69, align 1
  %71 = call noundef zeroext i1 @_ZN4llvm7isDigitEc(i8 noundef signext %70)
  br label %72

72:                                               ; preds = %65, %58
  %73 = phi i1 [ false, %58 ], [ %71, %65 ]
  %74 = zext i1 %73 to i8
  store i8 %74, ptr %11, align 1
  %75 = load i8, ptr %10, align 1
  %76 = trunc i8 %75 to i1
  %77 = zext i1 %76 to i32
  %78 = load i8, ptr %11, align 1
  %79 = trunc i8 %78 to i1
  %80 = zext i1 %79 to i32
  %81 = icmp ne i32 %77, %80
  br i1 %81, label %82, label %86

82:                                               ; preds = %72
  %83 = load i8, ptr %11, align 1
  %84 = trunc i8 %83 to i1
  %85 = select i1 %84, i32 -1, i32 1
  store i32 %85, ptr %4, align 4
  br label %163

86:                                               ; preds = %72
  %87 = load i8, ptr %11, align 1
  %88 = trunc i8 %87 to i1
  br i1 %88, label %90, label %89

89:                                               ; preds = %86
  br label %94

90:                                               ; preds = %86
  br label %91

91:                                               ; preds = %90
  %92 = load i64, ptr %9, align 8
  %93 = add i64 %92, 1
  store i64 %93, ptr %9, align 8
  br label %41, !llvm.loop !7

94:                                               ; preds = %89, %41
  %95 = getelementptr inbounds nuw %"class.llvm::StringRef", ptr %15, i32 0, i32 0
  %96 = load ptr, ptr %95, align 8
  %97 = load i64, ptr %7, align 8
  %98 = getelementptr inbounds i8, ptr %96, i64 %97
  %99 = getelementptr inbounds nuw %"class.llvm::StringRef", ptr %5, i32 0, i32 0
  %100 = load ptr, ptr %99, align 8
  %101 = load i64, ptr %7, align 8
  %102 = getelementptr inbounds i8, ptr %100, i64 %101
  %103 = load i64, ptr %9, align 8
  %104 = load i64, ptr %7, align 8
  %105 = sub i64 %103, %104
  %106 = call noundef i32 @_ZN4llvm9StringRef13compareMemoryEPKcS2_m(ptr noundef %98, ptr noundef %102, i64 noundef %105)
  store i32 %106, ptr %12, align 4
  %107 = load i32, ptr %12, align 4
  %108 = icmp ne i32 %107, 0
  br i1 %108, label %109, label %113

109:                                              ; preds = %94
  %110 = load i32, ptr %12, align 4
  %111 = icmp slt i32 %110, 0
  %112 = select i1 %111, i32 -1, i32 1
  store i32 %112, ptr %4, align 4
  br label %163

113:                                              ; preds = %94
  %114 = load i64, ptr %9, align 8
  %115 = sub i64 %114, 1
  store i64 %115, ptr %7, align 8
  br label %146

116:                                              ; preds = %31, %24
  %117 = getelementptr inbounds nuw %"class.llvm::StringRef", ptr %15, i32 0, i32 0
  %118 = load ptr, ptr %117, align 8
  %119 = load i64, ptr %7, align 8
  %120 = getelementptr inbounds i8, ptr %118, i64 %119
  %121 = load i8, ptr %120, align 1
  %122 = sext i8 %121 to i32
  %123 = getelementptr inbounds nuw %"class.llvm::StringRef", ptr %5, i32 0, i32 0
  %124 = load ptr, ptr %123, align 8
  %125 = load i64, ptr %7, align 8
  %126 = getelementptr inbounds i8, ptr %124, i64 %125
  %127 = load i8, ptr %126, align 1
  %128 = sext i8 %127 to i32
  %129 = icmp ne i32 %122, %128
  br i1 %129, label %130, label %145

130:                                              ; preds = %116
  %131 = getelementptr inbounds nuw %"class.llvm::StringRef", ptr %15, i32 0, i32 0
  %132 = load ptr, ptr %131, align 8
  %133 = load i64, ptr %7, align 8
  %134 = getelementptr inbounds i8, ptr %132, i64 %133
  %135 = load i8, ptr %134, align 1
  %136 = zext i8 %135 to i32
  %137 = getelementptr inbounds nuw %"class.llvm::StringRef", ptr %5, i32 0, i32 0
  %138 = load ptr, ptr %137, align 8
  %139 = load i64, ptr %7, align 8
  %140 = getelementptr inbounds i8, ptr %138, i64 %139
  %141 = load i8, ptr %140, align 1
  %142 = zext i8 %141 to i32
  %143 = icmp slt i32 %136, %142
  %144 = select i1 %143, i32 -1, i32 1
  store i32 %144, ptr %4, align 4
  br label %163

145:                                              ; preds = %116
  br label %146

146:                                              ; preds = %145, %113
  %147 = load i64, ptr %7, align 8
  %148 = add i64 %147, 1
  store i64 %148, ptr %7, align 8
  br label %20, !llvm.loop !8

149:                                              ; preds = %20
  %150 = getelementptr inbounds nuw %"class.llvm::StringRef", ptr %15, i32 0, i32 1
  %151 = load i64, ptr %150, align 8
  %152 = getelementptr inbounds nuw %"class.llvm::StringRef", ptr %5, i32 0, i32 1
  %153 = load i64, ptr %152, align 8
  %154 = icmp eq i64 %151, %153
  br i1 %154, label %155, label %156

155:                                              ; preds = %149
  store i32 0, ptr %4, align 4
  br label %163

156:                                              ; preds = %149
  %157 = getelementptr inbounds nuw %"class.llvm::StringRef", ptr %15, i32 0, i32 1
  %158 = load i64, ptr %157, align 8
  %159 = getelementptr inbounds nuw %"class.llvm::StringRef", ptr %5, i32 0, i32 1
  %160 = load i64, ptr %159, align 8
  %161 = icmp ult i64 %158, %160
  %162 = select i1 %161, i32 -1, i32 1
  store i32 %162, ptr %4, align 4
  br label %163

163:                                              ; preds = %156, %155, %130, %109, %82
  %164 = load i32, ptr %4, align 4
  ret i32 %164
}