; Function Attrs: mustprogress nofree nounwind willreturn memory(read, inaccessiblemem: none) uwtable
define dso_local noundef range(i32 -1, 2) i32 @_ZNK4llvm9StringRef15compare_numericES0_(ptr noundef nonnull readonly align 8 captures(none) dereferenceable(16) %0, ptr readonly captures(none) %1, i64 %2) local_unnamed_addr #2 align 2 {
  %4 = getelementptr inbounds nuw i8, ptr %0, i64 8
  %5 = load i64, ptr %4, align 8
  %.sroa.speculated = tail call i64 @llvm.umin.i64(i64 %2, i64 %5)
  %.not69 = icmp eq i64 %.sroa.speculated, 0
  br i1 %.not69, label %._crit_edge, label %.lr.ph

.lr.ph:                                           ; preds = %3
  %6 = load ptr, ptr %0, align 8
  %7 = add i64 %.sroa.speculated, 1
  br label %8

8:                                                ; preds = %.lr.ph, %_ZN4llvm9StringRef13compareMemoryEPKcS2_m.exit.thread
  %.02970 = phi i64 [ 0, %.lr.ph ], [ %44, %_ZN4llvm9StringRef13compareMemoryEPKcS2_m.exit.thread ]
  %9 = getelementptr inbounds i8, ptr %6, i64 %.02970
  %10 = load i8, ptr %9, align 1
  %11 = add i8 %10, -48
  %12 = icmp ult i8 %11, 10
  %13 = getelementptr inbounds i8, ptr %1, i64 %.02970
  %14 = load i8, ptr %13, align 1
  %15 = add i8 %14, -48
  %16 = icmp ult i8 %15, 10
  %or.cond = select i1 %12, i1 %16, i1 false
  br i1 %or.cond, label %.preheader, label %._crit_edge85

.preheader:                                       ; preds = %8, %35
  %.030.in = phi i64 [ %.030, %35 ], [ %.02970, %8 ]
  %.030 = add i64 %.030.in, 1
  %.not36 = icmp eq i64 %.030.in, %.sroa.speculated
  br i1 %.not36, label %.thread48, label %17

17:                                               ; preds = %.preheader
  %18 = icmp ult i64 %.030, %5
  br i1 %18, label %19, label %.thread51

19:                                               ; preds = %17
  %20 = getelementptr inbounds i8, ptr %6, i64 %.030
  %21 = load i8, ptr %20, align 1
  %22 = add i8 %21, -48
  %23 = icmp ult i8 %22, 10
  %24 = zext i1 %23 to i32
  %25 = icmp ult i64 %.030, %2
  br i1 %25, label %27, label %.thread

.thread51:                                        ; preds = %17
  %26 = icmp ult i64 %.030, %2
  br i1 %26, label %27, label %.thread48

27:                                               ; preds = %.thread51, %19
  %28 = phi i32 [ 0, %.thread51 ], [ %24, %19 ]
  %29 = getelementptr inbounds i8, ptr %1, i64 %.030
  %30 = load i8, ptr %29, align 1
  %.fr55 = freeze i8 %30
  %31 = add i8 %.fr55, -48
  %32 = icmp ult i8 %31, 10
  %33 = zext i1 %32 to i32
  %.not37 = icmp eq i32 %28, %33
  br i1 %.not37, label %35, label %34

.thread:                                          ; preds = %19
  br i1 %23, label %.thread53, label %.thread48

34:                                               ; preds = %27
  %spec.select = select i1 %32, i32 -1, i32 1
  br label %.thread53

35:                                               ; preds = %27
  br i1 %32, label %.preheader, label %.thread48, !llvm.loop !7

.thread48:                                        ; preds = %.thread51, %35, %.preheader, %.thread
  %.030.in77 = phi i64 [ %.030.in, %.thread ], [ %.030.in, %.thread51 ], [ %.030.in, %35 ], [ %.sroa.speculated, %.preheader ]
  %.03074 = phi i64 [ %.030, %.thread ], [ %.030, %.thread51 ], [ %.030, %35 ], [ %7, %.preheader ]
  %36 = icmp eq i64 %.03074, %.02970
  br i1 %36, label %_ZN4llvm9StringRef13compareMemoryEPKcS2_m.exit.thread, label %_ZN4llvm9StringRef13compareMemoryEPKcS2_m.exit

_ZN4llvm9StringRef13compareMemoryEPKcS2_m.exit:   ; preds = %.thread48
  %37 = sub i64 %.03074, %.02970
  %38 = tail call i32 @memcmp(ptr noundef nonnull %9, ptr noundef nonnull %13, i64 noundef %37) #19
  %.not38 = icmp eq i32 %38, 0
  br i1 %.not38, label %_ZN4llvm9StringRef13compareMemoryEPKcS2_m.exit.thread, label %39

39:                                               ; preds = %_ZN4llvm9StringRef13compareMemoryEPKcS2_m.exit
  %.inv = icmp sgt i32 %38, -1
  %40 = select i1 %.inv, i32 1, i32 -1
  br label %.thread53

._crit_edge85:                                    ; preds = %8
  %.not35 = icmp eq i8 %10, %14
  br i1 %.not35, label %_ZN4llvm9StringRef13compareMemoryEPKcS2_m.exit.thread, label %41

41:                                               ; preds = %._crit_edge85
  %42 = icmp ult i8 %10, %14
  %43 = select i1 %42, i32 -1, i32 1
  br label %.thread53

_ZN4llvm9StringRef13compareMemoryEPKcS2_m.exit.thread: ; preds = %.thread48, %_ZN4llvm9StringRef13compareMemoryEPKcS2_m.exit, %._crit_edge85
  %.1 = phi i64 [ %.02970, %._crit_edge85 ], [ %.030.in77, %_ZN4llvm9StringRef13compareMemoryEPKcS2_m.exit ], [ %.030.in77, %.thread48 ]
  %44 = add i64 %.1, 1
  %.not = icmp eq i64 %44, %.sroa.speculated
  br i1 %.not, label %._crit_edge, label %8, !llvm.loop !8

._crit_edge:                                      ; preds = %_ZN4llvm9StringRef13compareMemoryEPKcS2_m.exit.thread, %3
  %45 = icmp eq i64 %5, %2
  br i1 %45, label %.thread53, label %46

46:                                               ; preds = %._crit_edge
  %47 = icmp ult i64 %5, %2
  %48 = select i1 %47, i32 -1, i32 1
  br label %.thread53

.thread53:                                        ; preds = %.thread, %34, %._crit_edge, %46, %41, %39
  %.0 = phi i32 [ %40, %39 ], [ %43, %41 ], [ %48, %46 ], [ 0, %._crit_edge ], [ %spec.select, %34 ], [ 1, %.thread ]
  ret i32 %.0
}